target datalayout = "e-m:e-p270:32:32-p271:32:32-p272:64:64-i64:64-i128:128-f80:128-n8:16:32:64-S128"
target triple = "x86_64-unknown-linux-gnu"

@.str.7 = private unnamed_addr constant [18 x i8] c"/proc/device-tree\00", align 1
@.str.8 = private unnamed_addr constant [53 x i8] c"%s host device tree extracted into memory is invalid\00", align 1
@__func__.load_device_tree_from_sysfs = private unnamed_addr constant [28 x i8] c"load_device_tree_from_sysfs\00", align 1

; Function Attrs: nounwind sspstrong uwtable
define dso_local ptr @load_device_tree_from_sysfs() #0 {
entry:
  %host_fdt = alloca ptr, align 8
  %host_fdt_size = alloca i32, align 4
  %call = call ptr @create_device_tree(ptr noundef %host_fdt_size)
  store ptr %call, ptr %host_fdt, align 8
  %0 = load ptr, ptr %host_fdt, align 8
  call void @read_fstree(ptr noundef %0, ptr noundef @.str.7)
  %1 = load ptr, ptr %host_fdt, align 8
  %call1 = call i32 @fdt_check_header(ptr noundef %1)
  %tobool = icmp ne i32 %call1, 0
  br i1 %tobool, label %if.then, label %if.end

if.then:                                          ; preds = %entry
  call void (ptr, ...) @error_report(ptr noundef @.str.8, ptr noundef @__func__.load_device_tree_from_sysfs)
  call void @exit(i32 noundef 1) #10
  unreachable

if.end:                                           ; preds = %entry
  %2 = load ptr, ptr %host_fdt, align 8
  ret ptr %2
}