; Function Attrs: nounwind sspstrong uwtable
define dso_local noundef ptr @load_device_tree_from_sysfs() local_unnamed_addr #0 {
entry:
  %host_fdt_size = alloca i32, align 4
  %call = call ptr @create_device_tree(ptr noundef nonnull %host_fdt_size)
  tail call fastcc void @read_fstree(ptr noundef %call, ptr noundef nonnull @.str.7)
  %call1 = tail call i32 @fdt_check_header(ptr noundef %call) #12
  %tobool.not = icmp eq i32 %call1, 0
  br i1 %tobool.not, label %if.end, label %if.then

if.then:                                          ; preds = %entry
  tail call void (ptr, ...) @error_report(ptr noundef nonnull @.str.8, ptr noundef nonnull @__func__.load_device_tree_from_sysfs) #12
  tail call void @exit(i32 noundef 1) #13
  unreachable

if.end:                                           ; preds = %entry
  ret ptr %call
}